target datalayout = "e-m:e-p270:32:32-p271:32:32-p272:64:64-i64:64-i128:128-f80:128-n8:16:32:64-S128"
target triple = "x86_64-pc-linux-gnu"

%struct.pmix_device = type { ptr, ptr, i64 }

; Function Attrs: nounwind uwtable
define i32 @pmix_bfrops_base_copy_device(ptr noundef %0, ptr noundef %1, i16 noundef zeroext %2) #0 {
  %4 = alloca i32, align 4
  %5 = alloca ptr, align 8
  %6 = alloca ptr, align 8
  %7 = alloca i16, align 2
  %8 = alloca ptr, align 8
  %9 = alloca i32, align 4
  store ptr %0, ptr %5, align 8, !tbaa !216
  store ptr %1, ptr %6, align 8, !tbaa !171
  store i16 %2, ptr %7, align 2, !tbaa !9
  call void @llvm.lifetime.start.p0(i64 8, ptr %8) #11
  %10 = call ptr @PMIx_Device_create(i64 noundef 1)
  store ptr %10, ptr %8, align 8, !tbaa !171
  %11 = load ptr, ptr %8, align 8, !tbaa !171
  %12 = icmp eq ptr null, %11
  br i1 %12, label %13, label %14

13:                                               ; preds = %3
  store i32 -32, ptr %4, align 4
  store i32 1, ptr %9, align 4
  br label %46

14:                                               ; preds = %3
  %15 = load ptr, ptr %6, align 8, !tbaa !171
  %16 = getelementptr inbounds nuw %struct.pmix_device, ptr %15, i32 0, i32 0
  %17 = load ptr, ptr %16, align 8, !tbaa !173
  %18 = icmp ne ptr null, %17
  br i1 %18, label %19, label %26

19:                                               ; preds = %14
  %20 = load ptr, ptr %6, align 8, !tbaa !171
  %21 = getelementptr inbounds nuw %struct.pmix_device, ptr %20, i32 0, i32 0
  %22 = load ptr, ptr %21, align 8, !tbaa !173
  %23 = call noalias ptr @strdup(ptr noundef %22) #11
  %24 = load ptr, ptr %8, align 8, !tbaa !171
  %25 = getelementptr inbounds nuw %struct.pmix_device, ptr %24, i32 0, i32 0
  store ptr %23, ptr %25, align 8, !tbaa !173
  br label %26

26:                                               ; preds = %19, %14
  %27 = load ptr, ptr %6, align 8, !tbaa !171
  %28 = getelementptr inbounds nuw %struct.pmix_device, ptr %27, i32 0, i32 1
  %29 = load ptr, ptr %28, align 8, !tbaa !175
  %30 = icmp ne ptr null, %29
  br i1 %30, label %31, label %38

31:                                               ; preds = %26
  %32 = load ptr, ptr %6, align 8, !tbaa !171
  %33 = getelementptr inbounds nuw %struct.pmix_device, ptr %32, i32 0, i32 1
  %34 = load ptr, ptr %33, align 8, !tbaa !175
  %35 = call noalias ptr @strdup(ptr noundef %34) #11
  %36 = load ptr, ptr %8, align 8, !tbaa !171
  %37 = getelementptr inbounds nuw %struct.pmix_device, ptr %36, i32 0, i32 1
  store ptr %35, ptr %37, align 8, !tbaa !175
  br label %38

38:                                               ; preds = %31, %26
  %39 = load ptr, ptr %6, align 8, !tbaa !171
  %40 = getelementptr inbounds nuw %struct.pmix_device, ptr %39, i32 0, i32 2
  %41 = load i64, ptr %40, align 8, !tbaa !176
  %42 = load ptr, ptr %8, align 8, !tbaa !171
  %43 = getelementptr inbounds nuw %struct.pmix_device, ptr %42, i32 0, i32 2
  store i64 %41, ptr %43, align 8, !tbaa !176
  %44 = load ptr, ptr %8, align 8, !tbaa !171
  %45 = load ptr, ptr %5, align 8, !tbaa !216
  store ptr %44, ptr %45, align 8, !tbaa !171
  store i32 0, ptr %4, align 4
  store i32 1, ptr %9, align 4
  br label %46

46:                                               ; preds = %38, %13
  call void @llvm.lifetime.end.p0(i64 8, ptr %8) #11
  %47 = load i32, ptr %4, align 4
  ret i32 %47
}