; Function Attrs: nounwind uwtable
define range(i32 -32, 1) i32 @pmix_bfrops_base_copy_device(ptr noundef writeonly captures(none) %0, ptr noundef readonly captures(none) %1, i16 noundef zeroext %2) local_unnamed_addr #0 {
  %4 = tail call ptr @PMIx_Device_create(i64 noundef 1) #23
  %5 = icmp eq ptr %4, null
  br i1 %5, label %20, label %6

6:                                                ; preds = %3
  %7 = load ptr, ptr %1, align 8, !tbaa !146
  %.not = icmp eq ptr %7, null
  br i1 %.not, label %10, label %8

8:                                                ; preds = %6
  %9 = tail call noalias ptr @strdup(ptr noundef nonnull %7) #23
  store ptr %9, ptr %4, align 8, !tbaa !146
  br label %10

10:                                               ; preds = %8, %6
  %11 = getelementptr inbounds nuw i8, ptr %1, i64 8
  %12 = load ptr, ptr %11, align 8, !tbaa !148
  %.not14 = icmp eq ptr %12, null
  br i1 %.not14, label %16, label %13

13:                                               ; preds = %10
  %14 = tail call noalias ptr @strdup(ptr noundef nonnull %12) #23
  %15 = getelementptr inbounds nuw i8, ptr %4, i64 8
  store ptr %14, ptr %15, align 8, !tbaa !148
  br label %16

16:                                               ; preds = %13, %10
  %17 = getelementptr inbounds nuw i8, ptr %1, i64 16
  %18 = load i64, ptr %17, align 8, !tbaa !149
  %19 = getelementptr inbounds nuw i8, ptr %4, i64 16
  store i64 %18, ptr %19, align 8, !tbaa !149
  store ptr %4, ptr %0, align 8, !tbaa !220
  br label %20

20:                                               ; preds = %3, %16
  %.0 = phi i32 [ 0, %16 ], [ -32, %3 ]
  ret i32 %.0
}